target datalayout = "e-m:e-p270:32:32-p271:32:32-p272:64:64-i64:64-i128:128-f80:128-n8:16:32:64-S128"
target triple = "x86_64-pc-linux-gnu"

%struct.VP8LBitReader = type { i64, ptr, i64, i64, i32, i32 }

; Function Attrs: nounwind uwtable
define internal i32 @ReadImageInfo(ptr noundef %0, ptr noundef %1, ptr noundef %2, ptr noundef %3) #0 {
  %5 = alloca i32, align 4
  %6 = alloca ptr, align 8
  %7 = alloca ptr, align 8
  %8 = alloca ptr, align 8
  %9 = alloca ptr, align 8
  store ptr %0, ptr %6, align 8, !tbaa !15
  store ptr %1, ptr %7, align 8, !tbaa !11
  store ptr %2, ptr %8, align 8, !tbaa !11
  store ptr %3, ptr %9, align 8, !tbaa !11
  %10 = load ptr, ptr %6, align 8, !tbaa !15
  %11 = call i32 @VP8LReadBits(ptr noundef %10, i32 noundef 8)
  %12 = icmp ne i32 %11, 47
  br i1 %12, label %13, label %14

13:                                               ; preds = %4
  store i32 0, ptr %5, align 4
  br label %37

14:                                               ; preds = %4
  %15 = load ptr, ptr %6, align 8, !tbaa !15
  %16 = call i32 @VP8LReadBits(ptr noundef %15, i32 noundef 14)
  %17 = add i32 %16, 1
  %18 = load ptr, ptr %7, align 8, !tbaa !11
  store i32 %17, ptr %18, align 4, !tbaa !13
  %19 = load ptr, ptr %6, align 8, !tbaa !15
  %20 = call i32 @VP8LReadBits(ptr noundef %19, i32 noundef 14)
  %21 = add i32 %20, 1
  %22 = load ptr, ptr %8, align 8, !tbaa !11
  store i32 %21, ptr %22, align 4, !tbaa !13
  %23 = load ptr, ptr %6, align 8, !tbaa !15
  %24 = call i32 @VP8LReadBits(ptr noundef %23, i32 noundef 1)
  %25 = load ptr, ptr %9, align 8, !tbaa !11
  store i32 %24, ptr %25, align 4, !tbaa !13
  %26 = load ptr, ptr %6, align 8, !tbaa !15
  %27 = call i32 @VP8LReadBits(ptr noundef %26, i32 noundef 3)
  %28 = icmp ne i32 %27, 0
  br i1 %28, label %29, label %30

29:                                               ; preds = %14
  store i32 0, ptr %5, align 4
  br label %37

30:                                               ; preds = %14
  %31 = load ptr, ptr %6, align 8, !tbaa !15
  %32 = getelementptr inbounds nuw %struct.VP8LBitReader, ptr %31, i32 0, i32 5
  %33 = load i32, ptr %32, align 4, !tbaa !16
  %34 = icmp ne i32 %33, 0
  %35 = xor i1 %34, true
  %36 = zext i1 %35 to i32
  store i32 %36, ptr %5, align 4
  br label %37

37:                                               ; preds = %30, %29, %13
  %38 = load i32, ptr %5, align 4
  ret i32 %38
}

; Function Attrs: nounwind uwtable
define i32 @VP8LCheckSignature(ptr noundef %0, i64 noundef %1) #0 {
  %3 = alloca ptr, align 8
  %4 = alloca i64, align 8
  store ptr %0, ptr %3, align 8, !tbaa !3
  store i64 %1, ptr %4, align 8, !tbaa !8
  %5 = load i64, ptr %4, align 8, !tbaa !8
  %6 = icmp uge i64 %5, 5
  br i1 %6, label %7, label %20

7:                                                ; preds = %2
  %8 = load ptr, ptr %3, align 8, !tbaa !3
  %9 = getelementptr inbounds i8, ptr %8, i64 0
  %10 = load i8, ptr %9, align 1, !tbaa !10
  %11 = zext i8 %10 to i32
  %12 = icmp eq i32 %11, 47
  br i1 %12, label %13, label %20

13:                                               ; preds = %7
  %14 = load ptr, ptr %3, align 8, !tbaa !3
  %15 = getelementptr inbounds i8, ptr %14, i64 4
  %16 = load i8, ptr %15, align 1, !tbaa !10
  %17 = zext i8 %16 to i32
  %18 = ashr i32 %17, 5
  %19 = icmp eq i32 %18, 0
  br label %20

20:                                               ; preds = %13, %7, %2
  %21 = phi i1 [ false, %7 ], [ false, %2 ], [ %19, %13 ]
  %22 = zext i1 %21 to i32
  ret i32 %22
}

; Function Attrs: nounwind uwtable
define i32 @VP8LGetInfo(ptr noundef %0, i64 noundef %1, ptr noundef %2, ptr noundef %3, ptr noundef %4) #0 {
  %6 = alloca i32, align 4
  %7 = alloca ptr, align 8
  %8 = alloca i64, align 8
  %9 = alloca ptr, align 8
  %10 = alloca ptr, align 8
  %11 = alloca ptr, align 8
  %12 = alloca i32, align 4
  %13 = alloca i32, align 4
  %14 = alloca i32, align 4
  %15 = alloca %struct.VP8LBitReader, align 8
  %16 = alloca i32, align 4
  store ptr %0, ptr %7, align 8, !tbaa !3
  store i64 %1, ptr %8, align 8, !tbaa !8
  store ptr %2, ptr %9, align 8, !tbaa !11
  store ptr %3, ptr %10, align 8, !tbaa !11
  store ptr %4, ptr %11, align 8, !tbaa !11
  %17 = load ptr, ptr %7, align 8, !tbaa !3
  %18 = icmp eq ptr %17, null
  br i1 %18, label %22, label %19

19:                                               ; preds = %5
  %20 = load i64, ptr %8, align 8, !tbaa !8
  %21 = icmp ult i64 %20, 5
  br i1 %21, label %22, label %23

22:                                               ; preds = %19, %5
  store i32 0, ptr %6, align 4
  br label %55

23:                                               ; preds = %19
  %24 = load ptr, ptr %7, align 8, !tbaa !3
  %25 = load i64, ptr %8, align 8, !tbaa !8
  %26 = call i32 @VP8LCheckSignature(ptr noundef %24, i64 noundef %25)
  %27 = icmp ne i32 %26, 0
  br i1 %27, label %29, label %28

28:                                               ; preds = %23
  store i32 0, ptr %6, align 4
  br label %55

29:                                               ; preds = %23
  call void @llvm.lifetime.start.p0(i64 4, ptr %12) #6
  call void @llvm.lifetime.start.p0(i64 4, ptr %13) #6
  call void @llvm.lifetime.start.p0(i64 4, ptr %14) #6
  call void @llvm.lifetime.start.p0(i64 40, ptr %15) #6
  %30 = load ptr, ptr %7, align 8, !tbaa !3
  %31 = load i64, ptr %8, align 8, !tbaa !8
  call void @VP8LInitBitReader(ptr noundef %15, ptr noundef %30, i64 noundef %31)
  %32 = call i32 @ReadImageInfo(ptr noundef %15, ptr noundef %12, ptr noundef %13, ptr noundef %14)
  %33 = icmp ne i32 %32, 0
  br i1 %33, label %35, label %34

34:                                               ; preds = %29
  store i32 0, ptr %6, align 4
  store i32 1, ptr %16, align 4
  br label %54

35:                                               ; preds = %29
  %36 = load ptr, ptr %9, align 8, !tbaa !11
  %37 = icmp ne ptr %36, null
  br i1 %37, label %38, label %41

38:                                               ; preds = %35
  %39 = load i32, ptr %12, align 4, !tbaa !13
  %40 = load ptr, ptr %9, align 8, !tbaa !11
  store i32 %39, ptr %40, align 4, !tbaa !13
  br label %41

41:                                               ; preds = %38, %35
  %42 = load ptr, ptr %10, align 8, !tbaa !11
  %43 = icmp ne ptr %42, null
  br i1 %43, label %44, label %47

44:                                               ; preds = %41
  %45 = load i32, ptr %13, align 4, !tbaa !13
  %46 = load ptr, ptr %10, align 8, !tbaa !11
  store i32 %45, ptr %46, align 4, !tbaa !13
  br label %47

47:                                               ; preds = %44, %41
  %48 = load ptr, ptr %11, align 8, !tbaa !11
  %49 = icmp ne ptr %48, null
  br i1 %49, label %50, label %53

50:                                               ; preds = %47
  %51 = load i32, ptr %14, align 4, !tbaa !13
  %52 = load ptr, ptr %11, align 8, !tbaa !11
  store i32 %51, ptr %52, align 4, !tbaa !13
  br label %53

53:                                               ; preds = %50, %47
  store i32 1, ptr %6, align 4
  store i32 1, ptr %16, align 4
  br label %54

54:                                               ; preds = %53, %34
  call void @llvm.lifetime.end.p0(i64 40, ptr %15) #6
  call void @llvm.lifetime.end.p0(i64 4, ptr %14) #6
  call void @llvm.lifetime.end.p0(i64 4, ptr %13) #6
  call void @llvm.lifetime.end.p0(i64 4, ptr %12) #6
  br label %55

55:                                               ; preds = %54, %28, %22
  %56 = load i32, ptr %6, align 4
  ret i32 %56
}