; Function Attrs: nounwind uwtable
define range(i32 0, 2) i32 @VP8LGetInfo(ptr noundef %0, i64 noundef %1, ptr noundef writeonly captures(address_is_null) %2, ptr noundef writeonly captures(address_is_null) %3, ptr noundef writeonly captures(address_is_null) %4) local_unnamed_addr #1 {
  %6 = alloca %struct.VP8LBitReader, align 8
  %7 = icmp eq ptr %0, null
  %8 = icmp ult i64 %1, 5
  %or.cond = or i1 %7, %8
  br i1 %or.cond, label %VP8LCheckSignature.exit.thread, label %9

9:                                                ; preds = %5
  %10 = load i8, ptr %0, align 1, !tbaa !3
  %11 = icmp eq i8 %10, 47
  br i1 %11, label %VP8LCheckSignature.exit, label %VP8LCheckSignature.exit.thread

VP8LCheckSignature.exit:                          ; preds = %9
  %12 = getelementptr inbounds nuw i8, ptr %0, i64 4
  %13 = load i8, ptr %12, align 1, !tbaa !3
  %14 = icmp ugt i8 %13, 31
  br i1 %14, label %VP8LCheckSignature.exit.thread, label %15

15:                                               ; preds = %VP8LCheckSignature.exit
  call void @llvm.lifetime.start.p0(i64 40, ptr nonnull %6) #8
  call void @VP8LInitBitReader(ptr noundef nonnull %6, ptr noundef nonnull %0, i64 noundef %1) #8
  %16 = call i32 @VP8LReadBits(ptr noundef nonnull %6, i32 noundef 8) #8
  %.not.i = icmp eq i32 %16, 47
  br i1 %.not.i, label %17, label %ReadImageInfo.exit.thread

17:                                               ; preds = %15
  %18 = call i32 @VP8LReadBits(ptr noundef nonnull %6, i32 noundef 14) #8
  %19 = add i32 %18, 1
  %20 = call i32 @VP8LReadBits(ptr noundef nonnull %6, i32 noundef 14) #8
  %21 = add i32 %20, 1
  %22 = call i32 @VP8LReadBits(ptr noundef nonnull %6, i32 noundef 1) #8
  %23 = call i32 @VP8LReadBits(ptr noundef nonnull %6, i32 noundef 3) #8
  %.not9.i = icmp eq i32 %23, 0
  %24 = getelementptr inbounds nuw i8, ptr %6, i64 36
  %25 = load i32, ptr %24, align 4
  %.not10.i.not = icmp eq i32 %25, 0
  %or.cond34 = select i1 %.not9.i, i1 %.not10.i.not, i1 false
  br i1 %or.cond34, label %26, label %ReadImageInfo.exit.thread

26:                                               ; preds = %17
  %.not19 = icmp eq ptr %2, null
  br i1 %.not19, label %28, label %27

27:                                               ; preds = %26
  store i32 %19, ptr %2, align 4, !tbaa !6
  br label %28

28:                                               ; preds = %27, %26
  %.not20 = icmp eq ptr %3, null
  br i1 %.not20, label %30, label %29

29:                                               ; preds = %28
  store i32 %21, ptr %3, align 4, !tbaa !6
  br label %30

30:                                               ; preds = %29, %28
  %.not21 = icmp eq ptr %4, null
  br i1 %.not21, label %ReadImageInfo.exit.thread, label %31

31:                                               ; preds = %30
  store i32 %22, ptr %4, align 4, !tbaa !6
  br label %ReadImageInfo.exit.thread

ReadImageInfo.exit.thread:                        ; preds = %17, %15, %30, %31
  %.1 = phi i32 [ 1, %31 ], [ 1, %30 ], [ 0, %15 ], [ 0, %17 ]
  call void @llvm.lifetime.end.p0(i64 40, ptr nonnull %6) #8
  br label %VP8LCheckSignature.exit.thread

VP8LCheckSignature.exit.thread:                   ; preds = %9, %VP8LCheckSignature.exit, %5, %ReadImageInfo.exit.thread
  %.0 = phi i32 [ %.1, %ReadImageInfo.exit.thread ], [ 0, %5 ], [ 0, %VP8LCheckSignature.exit ], [ 0, %9 ]
  ret i32 %.0
}